target datalayout = "e-m:e-p270:32:32-p271:32:32-p272:64:64-i64:64-i128:128-f80:128-n8:16:32:64-S128"
target triple = "x86_64-pc-linux-gnu"

; Function Attrs: nounwind null_pointer_is_valid sspstrong uwtable
define hidden i32 @SetAdd(ptr noundef %0, i32 noundef %1) #2 {
  %3 = alloca ptr, align 8
  %4 = alloca i32, align 4
  %5 = alloca i32, align 4
  store ptr %0, ptr %3, align 8
  store i32 %1, ptr %4, align 4
  call void @llvm.lifetime.start.p0(i64 4, ptr %5) #18
  %6 = load ptr, ptr %3, align 8
  %7 = load i32, ptr %4, align 4
  %8 = sext i32 %7 to i64
  %9 = getelementptr i8, ptr %6, i64 %8
  %10 = load i8, ptr %9, align 1
  %11 = sext i8 %10 to i32
  store i32 %11, ptr %5, align 4
  %12 = load ptr, ptr %3, align 8
  %13 = load i32, ptr %4, align 4
  %14 = sext i32 %13 to i64
  %15 = getelementptr i8, ptr %12, i64 %14
  store i8 1, ptr %15, align 1
  %16 = load i32, ptr %5, align 4
  %17 = icmp ne i32 %16, 0
  %18 = xor i1 %17, true
  %19 = zext i1 %18 to i32
  call void @llvm.lifetime.end.p0(i64 4, ptr %5) #18
  ret i32 %19
}