; Function Attrs: mustprogress nofree norecurse nosync nounwind null_pointer_is_valid sspstrong willreturn memory(argmem: readwrite) uwtable
define hidden range(i32 0, 2) i32 @SetAdd(ptr noundef captures(none) %0, i32 noundef %1) local_unnamed_addr #10 {
  %3 = sext i32 %1 to i64
  %4 = getelementptr i8, ptr %0, i64 %3
  %5 = load i8, ptr %4, align 1
  store i8 1, ptr %4, align 1
  %.not = icmp eq i8 %5, 0
  %6 = zext i1 %.not to i32
  ret i32 %6
}